(lp0
(dp1
S'on'
p2
S'14:41'
p3
sS'off'
p4
S'14:42'
p5
sS'enabled'
p6
I01
sa(dp7
S'on'
p8
S'05:00'
p9
sS'off'
p10
S'05:15'
p11
sS'enabled'
p12
I01
sa(dp13
S'on'
p14
S'05:00'
p15
sS'off'
p16
S'05:15'
p17
sS'enabled'
p18
I01
sa(dp19
S'on'
p20
S'05:00'
p21
sS'off'
p22
S'05:15'
p23
sS'enabled'
p24
I01
sa(dp25
S'on'
p26
S'05:00'
p27
sS'off'
p28
S'05:15'
p29
sS'enabled'
p30
I01
sa(dp31
S'on'
p32
S'10:00'
p33
sS'off'
p34
S'10:15'
p35
sS'enabled'
p36
I01
sa(dp37
S'on'
p38
S'07:50'
p39
sS'off'
p40
S'08:05'
p41
sS'enabled'
p42
I01
sa.